target datalayout = "e-m:e-p270:32:32-p271:32:32-p272:64:64-i64:64-i128:128-f80:128-n8:16:32:64-S128"
target triple = "x86_64-pc-linux-gnu"

%"struct.cv::utils::logging::LogTag" = type <{ ptr, i32, [4 x i8] }>
%"struct.cv::utils::logging::LogTagManager::FullNameInfo" = type { ptr, %"struct.cv::utils::logging::LogTagManager::ParsedLevel" }
%"struct.cv::utils::logging::LogTagManager::ParsedLevel" = type { i32, i32 }

; Function Attrs: mustprogress nounwind uwtable
define hidden noundef zeroext i1 @_ZN2cv5utils7logging13LogTagManager33internal_applyFullNameConfigToTagERNS2_12FullNameInfoE(ptr noundef nonnull align 8 dereferenceable(336) %0, ptr noundef nonnull align 8 dereferenceable(16) %1) #2 align 2 {
  %3 = alloca i1, align 1
  %4 = alloca ptr, align 8
  %5 = alloca ptr, align 8
  store ptr %0, ptr %4, align 8, !tbaa !3
  store ptr %1, ptr %5, align 8, !tbaa !50
  %6 = load ptr, ptr %5, align 8, !tbaa !50
  %7 = getelementptr inbounds nuw %"struct.cv::utils::logging::LogTagManager::FullNameInfo", ptr %6, i32 0, i32 0
  %8 = load ptr, ptr %7, align 8, !tbaa !51
  %9 = icmp ne ptr %8, null
  br i1 %9, label %11, label %10

10:                                               ; preds = %2
  store i1 false, ptr %3, align 1
  br label %27

11:                                               ; preds = %2
  %12 = load ptr, ptr %5, align 8, !tbaa !50
  %13 = getelementptr inbounds nuw %"struct.cv::utils::logging::LogTagManager::FullNameInfo", ptr %12, i32 0, i32 1
  %14 = getelementptr inbounds nuw %"struct.cv::utils::logging::LogTagManager::ParsedLevel", ptr %13, i32 0, i32 1
  %15 = load i32, ptr %14, align 4, !tbaa !79
  %16 = icmp eq i32 %15, 1
  br i1 %16, label %17, label %26

17:                                               ; preds = %11
  %18 = load ptr, ptr %5, align 8, !tbaa !50
  %19 = getelementptr inbounds nuw %"struct.cv::utils::logging::LogTagManager::FullNameInfo", ptr %18, i32 0, i32 1
  %20 = getelementptr inbounds nuw %"struct.cv::utils::logging::LogTagManager::ParsedLevel", ptr %19, i32 0, i32 0
  %21 = load i32, ptr %20, align 8, !tbaa !80
  %22 = load ptr, ptr %5, align 8, !tbaa !50
  %23 = getelementptr inbounds nuw %"struct.cv::utils::logging::LogTagManager::FullNameInfo", ptr %22, i32 0, i32 0
  %24 = load ptr, ptr %23, align 8, !tbaa !51
  %25 = getelementptr inbounds nuw %"struct.cv::utils::logging::LogTag", ptr %24, i32 0, i32 1
  store i32 %21, ptr %25, align 8, !tbaa !18
  store i1 true, ptr %3, align 1
  br label %27

26:                                               ; preds = %11
  store i1 false, ptr %3, align 1
  br label %27

27:                                               ; preds = %26, %17, %10
  %28 = load i1, ptr %3, align 1
  ret i1 %28
}