; Function Attrs: mustprogress nofree norecurse nosync nounwind willreturn memory(write, argmem: readwrite, inaccessiblemem: none) uwtable
define hidden noundef zeroext i1 @_ZN2cv5utils7logging13LogTagManager33internal_applyFullNameConfigToTagERNS2_12FullNameInfoE(ptr noundef nonnull readnone align 8 captures(none) dereferenceable(336) %0, ptr noundef nonnull readonly align 8 captures(none) dereferenceable(16) %1) local_unnamed_addr #9 align 2 {
  %3 = load ptr, ptr %1, align 8, !tbaa !74
  %.not = icmp ne ptr %3, null
  %4 = getelementptr inbounds nuw i8, ptr %1, i64 12
  %5 = load i32, ptr %4, align 4
  %6 = icmp eq i32 %5, 1
  %or.cond = select i1 %.not, i1 %6, i1 false
  br i1 %or.cond, label %7, label %11

7:                                                ; preds = %2
  %8 = getelementptr inbounds nuw i8, ptr %1, i64 8
  %9 = load i32, ptr %8, align 8, !tbaa !78
  %10 = getelementptr inbounds nuw i8, ptr %3, i64 8
  store i32 %9, ptr %10, align 8, !tbaa !17
  br label %11

11:                                               ; preds = %2, %7
  ret i1 %or.cond
}